target datalayout = "e-m:e-p270:32:32-p271:32:32-p272:64:64-i64:64-i128:128-f80:128-n8:16:32:64-S128"
target triple = "x86_64-pc-linux-gnu"

%struct.zlib_writer = type { %struct.Curl_cwriter, i32, [16384 x i8], i32, %struct.z_stream_s }
%struct.Curl_cwriter = type { ptr, ptr, ptr, i32 }
%struct.z_stream_s = type { ptr, i32, i64, ptr, i32, i64, ptr, ptr, ptr, ptr, ptr, i32, i64, i64 }

@.str.13 = private unnamed_addr constant [46 x i8] c"Error while processing content unencoding: %s\00", align 1
@.str.14 = private unnamed_addr constant [90 x i8] c"Error while processing content unencoding: Unknown failure within decompression software.\00", align 1

; Function Attrs: nounwind uwtable
define internal i32 @process_zlib_error(ptr noundef %0, ptr noundef %1) #0 {
  %3 = alloca ptr, align 8
  %4 = alloca ptr, align 8
  store ptr %0, ptr %3, align 8, !tbaa !20
  store ptr %1, ptr %4, align 8, !tbaa !105
  %5 = load ptr, ptr %4, align 8, !tbaa !105
  %6 = getelementptr inbounds nuw %struct.z_stream_s, ptr %5, i32 0, i32 6
  %7 = load ptr, ptr %6, align 8, !tbaa !118
  %8 = icmp ne ptr %7, null
  br i1 %8, label %9, label %14

9:                                                ; preds = %2
  %10 = load ptr, ptr %3, align 8, !tbaa !20
  %11 = load ptr, ptr %4, align 8, !tbaa !105
  %12 = getelementptr inbounds nuw %struct.z_stream_s, ptr %11, i32 0, i32 6
  %13 = load ptr, ptr %12, align 8, !tbaa !118
  call void (ptr, ptr, ...) @Curl_failf(ptr noundef %10, ptr noundef @.str.13, ptr noundef %13)
  br label %16

14:                                               ; preds = %2
  %15 = load ptr, ptr %3, align 8, !tbaa !20
  call void (ptr, ptr, ...) @Curl_failf(ptr noundef %15, ptr noundef @.str.14)
  br label %16

16:                                               ; preds = %14, %9
  ret i32 61
}

; Function Attrs: nounwind uwtable
define internal i32 @exit_zlib(ptr noundef %0, ptr noundef %1, ptr noundef %2, i32 noundef %3) #0 {
  %5 = alloca ptr, align 8
  %6 = alloca ptr, align 8
  %7 = alloca ptr, align 8
  %8 = alloca i32, align 4
  store ptr %0, ptr %5, align 8, !tbaa !20
  store ptr %1, ptr %6, align 8, !tbaa !105
  store ptr %2, ptr %7, align 8, !tbaa !117
  store i32 %3, ptr %8, align 4, !tbaa !22
  %9 = load ptr, ptr %7, align 8, !tbaa !117
  %10 = load i32, ptr %9, align 4, !tbaa !22
  %11 = icmp ne i32 %10, 0
  br i1 %11, label %12, label %25

12:                                               ; preds = %4
  %13 = load ptr, ptr %6, align 8, !tbaa !105
  %14 = call i32 @inflateEnd(ptr noundef %13)
  %15 = icmp ne i32 %14, 0
  br i1 %15, label %16, label %23

16:                                               ; preds = %12
  %17 = load i32, ptr %8, align 4, !tbaa !22
  %18 = icmp eq i32 %17, 0
  br i1 %18, label %19, label %23

19:                                               ; preds = %16
  %20 = load ptr, ptr %5, align 8, !tbaa !20
  %21 = load ptr, ptr %6, align 8, !tbaa !105
  %22 = call i32 @process_zlib_error(ptr noundef %20, ptr noundef %21)
  store i32 %22, ptr %8, align 4, !tbaa !22
  br label %23

23:                                               ; preds = %19, %16, %12
  %24 = load ptr, ptr %7, align 8, !tbaa !117
  store i32 0, ptr %24, align 4, !tbaa !22
  br label %25

25:                                               ; preds = %23, %4
  %26 = load i32, ptr %8, align 4, !tbaa !22
  ret i32 %26
}

; Function Attrs: nounwind uwtable
define internal i32 @process_trailer(ptr noundef %0, ptr noundef %1) #0 {
  %3 = alloca ptr, align 8
  %4 = alloca ptr, align 8
  %5 = alloca ptr, align 8
  %6 = alloca i32, align 4
  %7 = alloca i32, align 4
  store ptr %0, ptr %3, align 8, !tbaa !20
  store ptr %1, ptr %4, align 8, !tbaa !103
  call void @llvm.lifetime.start.p0(i64 8, ptr %5) #5
  %8 = load ptr, ptr %4, align 8, !tbaa !103
  %9 = getelementptr inbounds nuw %struct.zlib_writer, ptr %8, i32 0, i32 4
  store ptr %9, ptr %5, align 8, !tbaa !105
  call void @llvm.lifetime.start.p0(i64 4, ptr %6) #5
  store i32 0, ptr %6, align 4, !tbaa !22
  call void @llvm.lifetime.start.p0(i64 4, ptr %7) #5
  %10 = load ptr, ptr %5, align 8, !tbaa !105
  %11 = getelementptr inbounds nuw %struct.z_stream_s, ptr %10, i32 0, i32 1
  %12 = load i32, ptr %11, align 8, !tbaa !116
  %13 = load ptr, ptr %4, align 8, !tbaa !103
  %14 = getelementptr inbounds nuw %struct.zlib_writer, ptr %13, i32 0, i32 3
  %15 = load i32, ptr %14, align 4, !tbaa !119
  %16 = icmp ult i32 %12, %15
  br i1 %16, label %17, label %21

17:                                               ; preds = %2
  %18 = load ptr, ptr %5, align 8, !tbaa !105
  %19 = getelementptr inbounds nuw %struct.z_stream_s, ptr %18, i32 0, i32 1
  %20 = load i32, ptr %19, align 8, !tbaa !116
  br label %25

21:                                               ; preds = %2
  %22 = load ptr, ptr %4, align 8, !tbaa !103
  %23 = getelementptr inbounds nuw %struct.zlib_writer, ptr %22, i32 0, i32 3
  %24 = load i32, ptr %23, align 4, !tbaa !119
  br label %25

25:                                               ; preds = %21, %17
  %26 = phi i32 [ %20, %17 ], [ %24, %21 ]
  store i32 %26, ptr %7, align 4, !tbaa !22
  %27 = load i32, ptr %7, align 4, !tbaa !22
  %28 = load ptr, ptr %4, align 8, !tbaa !103
  %29 = getelementptr inbounds nuw %struct.zlib_writer, ptr %28, i32 0, i32 3
  %30 = load i32, ptr %29, align 4, !tbaa !119
  %31 = sub i32 %30, %27
  store i32 %31, ptr %29, align 4, !tbaa !119
  %32 = load i32, ptr %7, align 4, !tbaa !22
  %33 = load ptr, ptr %5, align 8, !tbaa !105
  %34 = getelementptr inbounds nuw %struct.z_stream_s, ptr %33, i32 0, i32 1
  %35 = load i32, ptr %34, align 8, !tbaa !116
  %36 = sub i32 %35, %32
  store i32 %36, ptr %34, align 8, !tbaa !116
  %37 = load i32, ptr %7, align 4, !tbaa !22
  %38 = load ptr, ptr %5, align 8, !tbaa !105
  %39 = getelementptr inbounds nuw %struct.z_stream_s, ptr %38, i32 0, i32 0
  %40 = load ptr, ptr %39, align 8, !tbaa !115
  %41 = zext i32 %37 to i64
  %42 = getelementptr inbounds nuw i8, ptr %40, i64 %41
  store ptr %42, ptr %39, align 8, !tbaa !115
  %43 = load ptr, ptr %5, align 8, !tbaa !105
  %44 = getelementptr inbounds nuw %struct.z_stream_s, ptr %43, i32 0, i32 1
  %45 = load i32, ptr %44, align 8, !tbaa !116
  %46 = icmp ne i32 %45, 0
  br i1 %46, label %47, label %48

47:                                               ; preds = %25
  store i32 23, ptr %6, align 4, !tbaa !22
  br label %48

48:                                               ; preds = %47, %25
  %49 = load i32, ptr %6, align 4, !tbaa !22
  %50 = icmp ne i32 %49, 0
  br i1 %50, label %56, label %51

51:                                               ; preds = %48
  %52 = load ptr, ptr %4, align 8, !tbaa !103
  %53 = getelementptr inbounds nuw %struct.zlib_writer, ptr %52, i32 0, i32 3
  %54 = load i32, ptr %53, align 4, !tbaa !119
  %55 = icmp ne i32 %54, 0
  br i1 %55, label %63, label %56

56:                                               ; preds = %51, %48
  %57 = load ptr, ptr %3, align 8, !tbaa !20
  %58 = load ptr, ptr %5, align 8, !tbaa !105
  %59 = load ptr, ptr %4, align 8, !tbaa !103
  %60 = getelementptr inbounds nuw %struct.zlib_writer, ptr %59, i32 0, i32 1
  %61 = load i32, ptr %6, align 4, !tbaa !22
  %62 = call i32 @exit_zlib(ptr noundef %57, ptr noundef %58, ptr noundef %60, i32 noundef %61)
  store i32 %62, ptr %6, align 4, !tbaa !22
  br label %66

63:                                               ; preds = %51
  %64 = load ptr, ptr %4, align 8, !tbaa !103
  %65 = getelementptr inbounds nuw %struct.zlib_writer, ptr %64, i32 0, i32 1
  store i32 3, ptr %65, align 8, !tbaa !111
  br label %66

66:                                               ; preds = %63, %56
  %67 = load i32, ptr %6, align 4, !tbaa !22
  call void @llvm.lifetime.end.p0(i64 4, ptr %7) #5
  call void @llvm.lifetime.end.p0(i64 4, ptr %6) #5
  call void @llvm.lifetime.end.p0(i64 8, ptr %5) #5
  ret i32 %67
}