; Function Attrs: nounwind uwtable
define internal fastcc range(i32 0, 62) i32 @process_trailer(ptr noundef %0, ptr noundef %1) unnamed_addr #0 {
  %3 = getelementptr inbounds nuw i8, ptr %1, i64 16424
  %4 = getelementptr inbounds nuw i8, ptr %1, i64 16432
  %5 = load i32, ptr %4, align 8, !tbaa !100
  %6 = getelementptr inbounds nuw i8, ptr %1, i64 16420
  %7 = load i32, ptr %6, align 4, !tbaa !103
  %. = tail call i32 @llvm.umin.i32(i32 %5, i32 %7)
  %8 = sub i32 %7, %.
  store i32 %8, ptr %6, align 4, !tbaa !103
  %9 = sub i32 %5, %.
  store i32 %9, ptr %4, align 8, !tbaa !100
  %10 = load ptr, ptr %3, align 8, !tbaa !99
  %11 = zext i32 %. to i64
  %12 = getelementptr inbounds nuw i8, ptr %10, i64 %11
  store ptr %12, ptr %3, align 8, !tbaa !99
  %.not.not = icmp ugt i32 %5, %7
  br i1 %.not.not, label %.split, label %16

.split:                                           ; preds = %2
  %13 = getelementptr inbounds nuw i8, ptr %1, i64 32
  %14 = load i32, ptr %13, align 4, !tbaa !101
  %.not.i = icmp eq i32 %14, 0
  br i1 %.not.i, label %exit_zlib.exit, label %process_zlib_error.exit.i

process_zlib_error.exit.i:                        ; preds = %.split
  %15 = tail call i32 @inflateEnd(ptr noundef nonnull %3) #8
  store i32 0, ptr %13, align 4, !tbaa !101
  br label %exit_zlib.exit

16:                                               ; preds = %2
  %.not23.not = icmp ugt i32 %7, %5
  %17 = getelementptr inbounds nuw i8, ptr %1, i64 32
  br i1 %.not23.not, label %25, label %.split19

.split19:                                         ; preds = %16
  %18 = load i32, ptr %17, align 4, !tbaa !101
  %.not.i24 = icmp eq i32 %18, 0
  br i1 %.not.i24, label %exit_zlib.exit, label %19

19:                                               ; preds = %.split19
  %20 = tail call i32 @inflateEnd(ptr noundef nonnull %3) #8
  %.not = icmp eq i32 %20, 0
  br i1 %.not, label %process_zlib_error.exit.i26, label %21

21:                                               ; preds = %19
  %22 = getelementptr i8, ptr %1, i64 16472
  %.val.i29 = load ptr, ptr %22, align 8, !tbaa !94
  %.not.i.i30 = icmp eq ptr %.val.i29, null
  br i1 %.not.i.i30, label %24, label %23

23:                                               ; preds = %21
  tail call void (ptr, ptr, ...) @Curl_failf(ptr noundef %0, ptr noundef nonnull @.str.13, ptr noundef nonnull %.val.i29) #8
  br label %process_zlib_error.exit.i26

24:                                               ; preds = %21
  tail call void (ptr, ptr, ...) @Curl_failf(ptr noundef %0, ptr noundef nonnull @.str.14) #8
  br label %process_zlib_error.exit.i26

process_zlib_error.exit.i26:                      ; preds = %24, %23, %19
  %.1.i27 = phi i32 [ 0, %19 ], [ 61, %23 ], [ 61, %24 ]
  store i32 0, ptr %17, align 4, !tbaa !101
  br label %exit_zlib.exit

25:                                               ; preds = %16
  store i32 3, ptr %17, align 8, !tbaa !95
  br label %exit_zlib.exit

exit_zlib.exit:                                   ; preds = %process_zlib_error.exit.i26, %.split19, %process_zlib_error.exit.i, %.split, %25
  %.1 = phi i32 [ 0, %25 ], [ 23, %process_zlib_error.exit.i ], [ 23, %.split ], [ %.1.i27, %process_zlib_error.exit.i26 ], [ 0, %.split19 ]
  ret i32 %.1
}